target datalayout = "e-m:e-p270:32:32-p271:32:32-p272:64:64-i64:64-i128:128-f80:128-n8:16:32:64-S128"
target triple = "x86_64-unknown-linux-gnu"

%"class.grpc_core::BatchBuilder" = type { ptr, %"class.std::optional", ptr }
%"class.std::optional" = type { %"struct.std::_Optional_base" }
%"struct.std::_Optional_base" = type { %"struct.std::_Optional_payload" }
%"struct.std::_Optional_payload" = type { %"struct.std::_Optional_payload_base.base", [7 x i8] }
%"struct.std::_Optional_payload_base.base" = type <{ %"union.std::_Optional_payload_base<grpc_core::BatchBuilder::Target>::_Storage", i8 }>
%"union.std::_Optional_payload_base<grpc_core::BatchBuilder::Target>::_Storage" = type { %"struct.grpc_core::BatchBuilder::Target" }
%"struct.grpc_core::BatchBuilder::Target" = type { ptr, ptr, ptr }
%"struct.std::_Optional_payload_base" = type <{ %"union.std::_Optional_payload_base<grpc_core::BatchBuilder::Target>::_Storage", i8, [7 x i8] }>

; Function Attrs: mustprogress nounwind uwtable
define linkonce_odr void @_ZNSt22_Optional_payload_baseIN9grpc_core12BatchBuilder6TargetEE8_StorageIS2_Lb1EEC2Ev(ptr noundef nonnull align 8 dereferenceable(24) %this) unnamed_addr #4 comdat align 2 {
entry:
  %this.addr = alloca ptr, align 8
  store ptr %this, ptr %this.addr, align 8
  ret void
}

; Function Attrs: mustprogress nounwind uwtable
define linkonce_odr void @_ZNSt22_Optional_payload_baseIN9grpc_core12BatchBuilder6TargetEEC2Ev(ptr noundef nonnull align 8 dereferenceable(25) %this) unnamed_addr #4 comdat align 2 {
entry:
  %this.addr = alloca ptr, align 8
  store ptr %this, ptr %this.addr, align 8
  %this1 = load ptr, ptr %this.addr, align 8
  %_M_payload = getelementptr inbounds %"struct.std::_Optional_payload_base", ptr %this1, i32 0, i32 0
  call void @_ZNSt22_Optional_payload_baseIN9grpc_core12BatchBuilder6TargetEE8_StorageIS2_Lb1EEC2Ev(ptr noundef nonnull align 8 dereferenceable(24) %_M_payload) #3
  %_M_engaged = getelementptr inbounds %"struct.std::_Optional_payload_base", ptr %this1, i32 0, i32 1
  store i8 0, ptr %_M_engaged, align 8
  ret void
}

; Function Attrs: mustprogress nounwind uwtable
define linkonce_odr void @_ZNSt17_Optional_payloadIN9grpc_core12BatchBuilder6TargetELb1ELb1ELb1EEC2Ev(ptr noundef nonnull align 8 dereferenceable(25) %this) unnamed_addr #4 comdat align 2 {
entry:
  %this.addr = alloca ptr, align 8
  store ptr %this, ptr %this.addr, align 8
  %this1 = load ptr, ptr %this.addr, align 8
  call void @_ZNSt22_Optional_payload_baseIN9grpc_core12BatchBuilder6TargetEEC2Ev(ptr noundef nonnull align 8 dereferenceable(25) %this1) #3
  ret void
}

; Function Attrs: mustprogress nounwind uwtable
define linkonce_odr void @_ZNSt14_Optional_baseIN9grpc_core12BatchBuilder6TargetELb1ELb1EEC2Ev(ptr noundef nonnull align 8 dereferenceable(32) %this) unnamed_addr #4 comdat align 2 {
entry:
  %this.addr = alloca ptr, align 8
  store ptr %this, ptr %this.addr, align 8
  %this1 = load ptr, ptr %this.addr, align 8
  %_M_payload = getelementptr inbounds %"struct.std::_Optional_base", ptr %this1, i32 0, i32 0
  call void @_ZNSt17_Optional_payloadIN9grpc_core12BatchBuilder6TargetELb1ELb1ELb1EEC2Ev(ptr noundef nonnull align 8 dereferenceable(25) %_M_payload) #3
  ret void
}

; Function Attrs: mustprogress nounwind uwtable
define linkonce_odr void @_ZNSt8optionalIN9grpc_core12BatchBuilder6TargetEEC2Ev(ptr noundef nonnull align 8 dereferenceable(32) %this) unnamed_addr #4 comdat align 2 {
entry:
  %this.addr = alloca ptr, align 8
  store ptr %this, ptr %this.addr, align 8
  %this1 = load ptr, ptr %this.addr, align 8
  call void @_ZNSt14_Optional_baseIN9grpc_core12BatchBuilder6TargetELb1ELb1EEC2Ev(ptr noundef nonnull align 8 dereferenceable(32) %this1) #3
  ret void
}

; Function Attrs: mustprogress nounwind uwtable
define void @_ZN9grpc_core12BatchBuilderC2EP38grpc_transport_stream_op_batch_payload(ptr noundef nonnull align 8 dereferenceable(48) %this, ptr noundef %payload) unnamed_addr #4 align 2 {
entry:
  %this.addr = alloca ptr, align 8
  %payload.addr = alloca ptr, align 8
  store ptr %this, ptr %this.addr, align 8
  store ptr %payload, ptr %payload.addr, align 8
  %this1 = load ptr, ptr %this.addr, align 8
  %payload_ = getelementptr inbounds %"class.grpc_core::BatchBuilder", ptr %this1, i32 0, i32 0
  %0 = load ptr, ptr %payload.addr, align 8
  store ptr %0, ptr %payload_, align 8
  %target_ = getelementptr inbounds %"class.grpc_core::BatchBuilder", ptr %this1, i32 0, i32 1
  call void @_ZNSt8optionalIN9grpc_core12BatchBuilder6TargetEEC2Ev(ptr noundef nonnull align 8 dereferenceable(32) %target_) #3
  %batch_ = getelementptr inbounds %"class.grpc_core::BatchBuilder", ptr %this1, i32 0, i32 2
  store ptr null, ptr %batch_, align 8
  ret void
}