; Function Attrs: mustprogress nofree norecurse nosync nounwind willreturn memory(argmem: write) uwtable
define void @_ZN9grpc_core12BatchBuilderC2EP38grpc_transport_stream_op_batch_payload(ptr nocapture noundef nonnull writeonly align 8 dereferenceable(48) %this, ptr noundef %payload) unnamed_addr #3 align 2 {
entry:
  store ptr %payload, ptr %this, align 8
  %_M_engaged.i.i.i.i = getelementptr inbounds i8, ptr %this, i64 32
  store i8 0, ptr %_M_engaged.i.i.i.i, align 8
  %batch_ = getelementptr inbounds i8, ptr %this, i64 40
  store ptr null, ptr %batch_, align 8
  ret void
}